
/home/xin/repo/ysyx-workbench/am-kernels/tests/cpu-tests/build/goldbach-riscv32-nemu.elf:     file format elf32-littleriscv


Disassembly of section .text:

80000000 <_start>:
80000000:	00000413          	li	s0,0
80000004:	00009117          	auipc	sp,0x9
80000008:	ffc10113          	add	sp,sp,-4 # 80009000 <_end>
8000000c:	11c000ef          	jal	80000128 <_trm_init>

80000010 <check>:
80000010:	00050463          	beqz	a0,80000018 <check+0x8>
80000014:	00008067          	ret
80000018:	ff010113          	add	sp,sp,-16
8000001c:	00100513          	li	a0,1
80000020:	00112623          	sw	ra,12(sp)
80000024:	0f8000ef          	jal	8000011c <halt>

80000028 <goldbach>:
80000028:	00200793          	li	a5,2
8000002c:	00050813          	mv	a6,a0
80000030:	08a7d863          	bge	a5,a0,800000c0 <goldbach+0x98>
80000034:	ffe50713          	add	a4,a0,-2
80000038:	00100793          	li	a5,1
8000003c:	00000513          	li	a0,0
80000040:	06f70e63          	beq	a4,a5,800000bc <goldbach+0x94>
80000044:	00070593          	mv	a1,a4
80000048:	00200693          	li	a3,2
8000004c:	00200313          	li	t1,2
80000050:	00100893          	li	a7,1
80000054:	06670a63          	beq	a4,t1,800000c8 <goldbach+0xa0>
80000058:	00177513          	and	a0,a4,1
8000005c:	00200793          	li	a5,2
80000060:	00051863          	bnez	a0,80000070 <goldbach+0x48>
80000064:	0200006f          	j	80000084 <goldbach+0x5c>
80000068:	02f76633          	rem	a2,a4,a5
8000006c:	00060c63          	beqz	a2,80000084 <goldbach+0x5c>
80000070:	00178793          	add	a5,a5,1
80000074:	fee79ae3          	bne	a5,a4,80000068 <goldbach+0x40>
80000078:	00008067          	ret
8000007c:	00058713          	mv	a4,a1
80000080:	fcb8cae3          	blt	a7,a1,80000054 <goldbach+0x2c>
80000084:	00068613          	mv	a2,a3
80000088:	00168693          	add	a3,a3,1
8000008c:	fff58593          	add	a1,a1,-1
80000090:	02d80863          	beq	a6,a3,800000c0 <goldbach+0x98>
80000094:	0016f793          	and	a5,a3,1
80000098:	fe0786e3          	beqz	a5,80000084 <goldbach+0x5c>
8000009c:	00200793          	li	a5,2
800000a0:	00c0006f          	j	800000ac <goldbach+0x84>
800000a4:	02f6e733          	rem	a4,a3,a5
800000a8:	fc070ee3          	beqz	a4,80000084 <goldbach+0x5c>
800000ac:	00078713          	mv	a4,a5
800000b0:	00178793          	add	a5,a5,1
800000b4:	fec718e3          	bne	a4,a2,800000a4 <goldbach+0x7c>
800000b8:	fc5ff06f          	j	8000007c <goldbach+0x54>
800000bc:	00008067          	ret
800000c0:	00000513          	li	a0,0
800000c4:	00008067          	ret
800000c8:	00100513          	li	a0,1
800000cc:	00008067          	ret

800000d0 <main>:
800000d0:	ff010113          	add	sp,sp,-16
800000d4:	00812423          	sw	s0,8(sp)
800000d8:	00912223          	sw	s1,4(sp)
800000dc:	00112623          	sw	ra,12(sp)
800000e0:	00400413          	li	s0,4
800000e4:	02000493          	li	s1,32
800000e8:	00040513          	mv	a0,s0
800000ec:	f3dff0ef          	jal	80000028 <goldbach>
800000f0:	fff50513          	add	a0,a0,-1
800000f4:	00153513          	seqz	a0,a0
800000f8:	00240413          	add	s0,s0,2
800000fc:	f15ff0ef          	jal	80000010 <check>
80000100:	fe9414e3          	bne	s0,s1,800000e8 <main+0x18>
80000104:	00c12083          	lw	ra,12(sp)
80000108:	00812403          	lw	s0,8(sp)
8000010c:	00412483          	lw	s1,4(sp)
80000110:	00000513          	li	a0,0
80000114:	01010113          	add	sp,sp,16
80000118:	00008067          	ret

8000011c <halt>:
8000011c:	00050513          	mv	a0,a0
80000120:	00100073          	ebreak
80000124:	0000006f          	j	80000124 <halt+0x8>

80000128 <_trm_init>:
80000128:	ff010113          	add	sp,sp,-16
8000012c:	00000517          	auipc	a0,0x0
80000130:	01c50513          	add	a0,a0,28 # 80000148 <_etext>
80000134:	00112623          	sw	ra,12(sp)
80000138:	f99ff0ef          	jal	800000d0 <main>
8000013c:	00050513          	mv	a0,a0
80000140:	00100073          	ebreak
80000144:	0000006f          	j	80000144 <_trm_init+0x1c>
