
/home/xin/repo/ysyx-workbench/am-kernels/tests/cpu-tests/build/pascal-riscv32-nemu.elf:     file format elf32-littleriscv


Disassembly of section .text:

80000000 <_start>:
80000000:	00000413          	li	s0,0
80000004:	00009117          	auipc	sp,0x9
80000008:	ffc10113          	add	sp,sp,-4 # 80009000 <_end>
8000000c:	0e0000ef          	jal	800000ec <_trm_init>

80000010 <check>:
80000010:	00050463          	beqz	a0,80000018 <check+0x8>
80000014:	00008067          	ret
80000018:	ff010113          	add	sp,sp,-16
8000001c:	00100513          	li	a0,1
80000020:	00112623          	sw	ra,12(sp)
80000024:	0bc000ef          	jal	800000e0 <halt>

80000028 <main>:
80000028:	ff010113          	add	sp,sp,-16
8000002c:	00812423          	sw	s0,8(sp)
80000030:	01212023          	sw	s2,0(sp)
80000034:	00112623          	sw	ra,12(sp)
80000038:	00912223          	sw	s1,4(sp)
8000003c:	00000417          	auipc	s0,0x0
80000040:	15040413          	add	s0,s0,336 # 8000018c <a>
80000044:	00100793          	li	a5,1
80000048:	00f42223          	sw	a5,4(s0)
8000004c:	00f42023          	sw	a5,0(s0)
80000050:	00000617          	auipc	a2,0x0
80000054:	14460613          	add	a2,a2,324 # 80000194 <a+0x8>
80000058:	00000917          	auipc	s2,0x0
8000005c:	1b090913          	add	s2,s2,432 # 80000208 <a+0x7c>
80000060:	00100593          	li	a1,1
80000064:	00000797          	auipc	a5,0x0
80000068:	12c78793          	add	a5,a5,300 # 80000190 <a+0x4>
8000006c:	00100693          	li	a3,1
80000070:	00068713          	mv	a4,a3
80000074:	0007a683          	lw	a3,0(a5)
80000078:	00478793          	add	a5,a5,4
8000007c:	00e68733          	add	a4,a3,a4
80000080:	fee7ae23          	sw	a4,-4(a5)
80000084:	fec796e3          	bne	a5,a2,80000070 <main+0x48>
80000088:	00b7a023          	sw	a1,0(a5)
8000008c:	00478613          	add	a2,a5,4
80000090:	fd261ae3          	bne	a2,s2,80000064 <main+0x3c>
80000094:	00000497          	auipc	s1,0x0
80000098:	07c48493          	add	s1,s1,124 # 80000110 <ans>
8000009c:	0004a783          	lw	a5,0(s1)
800000a0:	00042503          	lw	a0,0(s0)
800000a4:	00440413          	add	s0,s0,4
800000a8:	00448493          	add	s1,s1,4
800000ac:	40f50533          	sub	a0,a0,a5
800000b0:	00153513          	seqz	a0,a0
800000b4:	f5dff0ef          	jal	80000010 <check>
800000b8:	ff2412e3          	bne	s0,s2,8000009c <main+0x74>
800000bc:	00100513          	li	a0,1
800000c0:	f51ff0ef          	jal	80000010 <check>
800000c4:	00c12083          	lw	ra,12(sp)
800000c8:	00812403          	lw	s0,8(sp)
800000cc:	00412483          	lw	s1,4(sp)
800000d0:	00012903          	lw	s2,0(sp)
800000d4:	00000513          	li	a0,0
800000d8:	01010113          	add	sp,sp,16
800000dc:	00008067          	ret

800000e0 <halt>:
800000e0:	00050513          	mv	a0,a0
800000e4:	00100073          	ebreak
800000e8:	0000006f          	j	800000e8 <halt+0x8>

800000ec <_trm_init>:
800000ec:	ff010113          	add	sp,sp,-16
800000f0:	00000517          	auipc	a0,0x0
800000f4:	01c50513          	add	a0,a0,28 # 8000010c <_etext>
800000f8:	00112623          	sw	ra,12(sp)
800000fc:	f2dff0ef          	jal	80000028 <main>
80000100:	00050513          	mv	a0,a0
80000104:	00100073          	ebreak
80000108:	0000006f          	j	80000108 <_trm_init+0x1c>
